target datalayout = "e-m:e-p270:32:32-p271:32:32-p272:64:64-i64:64-i128:128-f80:128-n8:16:32:64-S128"
target triple = "x86_64-pc-linux-gnu"

@output_failed = internal global i8 0, align 1
@output_errno = internal global i32 0, align 4
@.str.397 = private unnamed_addr constant [3 x i8] c"\0A\0A\00", align 1

; Function Attrs: nounwind uwtable
define internal void @setup_run_file(ptr noundef %0, ptr noundef %1) #0 {
  %3 = alloca ptr, align 8
  %4 = alloca ptr, align 8
  %5 = alloca ptr, align 8
  %6 = alloca ptr, align 8
  store ptr %0, ptr %3, align 8
  store ptr %1, ptr %4, align 8
  call void @llvm.lifetime.start.p0(i64 8, ptr %5) #10
  %7 = load ptr, ptr %4, align 8
  %8 = call ptr @readfile(ptr noundef %7)
  store ptr %8, ptr %5, align 8
  call void @llvm.lifetime.start.p0(i64 8, ptr %6) #10
  %9 = load ptr, ptr %5, align 8
  store ptr %9, ptr %6, align 8
  br label %10

10:                                               ; preds = %34, %2
  %11 = load ptr, ptr %6, align 8
  %12 = load ptr, ptr %11, align 8
  %13 = icmp ne ptr %12, null
  br i1 %13, label %15, label %14

14:                                               ; preds = %10
  call void @llvm.lifetime.end.p0(i64 8, ptr %6) #10
  br label %37

15:                                               ; preds = %10
  br label %16

16:                                               ; preds = %15
  %17 = load ptr, ptr %6, align 8
  %18 = load ptr, ptr %17, align 8
  %19 = load ptr, ptr %3, align 8
  %20 = call i32 @fputs(ptr noundef %18, ptr noundef %19)
  %21 = icmp slt i32 %20, 0
  br i1 %21, label %26, label %22

22:                                               ; preds = %16
  %23 = load ptr, ptr %3, align 8
  %24 = call i32 @fflush(ptr noundef %23)
  %25 = icmp slt i32 %24, 0
  br i1 %25, label %26, label %29

26:                                               ; preds = %22, %16
  store i8 1, ptr @output_failed, align 1
  %27 = call ptr @__errno_location() #13
  %28 = load i32, ptr %27, align 4
  store i32 %28, ptr @output_errno, align 4
  br label %29

29:                                               ; preds = %26, %22
  br label %30

30:                                               ; preds = %29
  br label %31

31:                                               ; preds = %30
  %32 = load ptr, ptr %6, align 8
  %33 = load ptr, ptr %32, align 8
  call void @free(ptr noundef %33) #10
  br label %34

34:                                               ; preds = %31
  %35 = load ptr, ptr %6, align 8
  %36 = getelementptr inbounds nuw ptr, ptr %35, i32 1
  store ptr %36, ptr %6, align 8
  br label %10, !llvm.loop !14

37:                                               ; preds = %14
  br label %38

38:                                               ; preds = %37
  %39 = load ptr, ptr %3, align 8
  %40 = call i32 @fputs(ptr noundef @.str.397, ptr noundef %39)
  %41 = icmp slt i32 %40, 0
  br i1 %41, label %46, label %42

42:                                               ; preds = %38
  %43 = load ptr, ptr %3, align 8
  %44 = call i32 @fflush(ptr noundef %43)
  %45 = icmp slt i32 %44, 0
  br i1 %45, label %46, label %49

46:                                               ; preds = %42, %38
  store i8 1, ptr @output_failed, align 1
  %47 = call ptr @__errno_location() #13
  %48 = load i32, ptr %47, align 4
  store i32 %48, ptr @output_errno, align 4
  br label %49

49:                                               ; preds = %46, %42
  br label %50

50:                                               ; preds = %49
  br label %51

51:                                               ; preds = %50
  %52 = load ptr, ptr %5, align 8
  call void @free(ptr noundef %52) #10
  call void @llvm.lifetime.end.p0(i64 8, ptr %5) #10
  ret void
}