; Function Attrs: nounwind uwtable
define internal fastcc void @setup_run_file(ptr noundef nonnull captures(none) %0, ptr noundef %1) unnamed_addr #0 {
  %3 = tail call fastcc ptr @readfile(ptr noundef %1)
  %4 = load ptr, ptr %3, align 8
  %.not12 = icmp eq ptr %4, null
  br i1 %.not12, label %._crit_edge, label %.lr.ph

._crit_edge:                                      ; preds = %16, %2
  %5 = tail call i32 @fputs(ptr noundef nonnull @.str.397, ptr noundef nonnull %0)
  %6 = icmp slt i32 %5, 0
  br i1 %6, label %23, label %20

.lr.ph:                                           ; preds = %2, %16
  %7 = phi ptr [ %19, %16 ], [ %4, %2 ]
  %.013 = phi ptr [ %18, %16 ], [ %3, %2 ]
  %8 = tail call i32 @fputs(ptr noundef nonnull %7, ptr noundef nonnull %0)
  %9 = icmp slt i32 %8, 0
  br i1 %9, label %13, label %10

10:                                               ; preds = %.lr.ph
  %11 = tail call i32 @fflush(ptr noundef nonnull %0)
  %12 = icmp slt i32 %11, 0
  br i1 %12, label %13, label %16

13:                                               ; preds = %10, %.lr.ph
  store i1 true, ptr @output_failed, align 1
  %14 = tail call ptr @__errno_location() #23
  %15 = load i32, ptr %14, align 4
  store i32 %15, ptr @output_errno, align 4
  br label %16

16:                                               ; preds = %13, %10
  %17 = load ptr, ptr %.013, align 8
  tail call void @free(ptr noundef %17) #19
  %18 = getelementptr inbounds nuw i8, ptr %.013, i64 8
  %19 = load ptr, ptr %18, align 8
  %.not = icmp eq ptr %19, null
  br i1 %.not, label %._crit_edge, label %.lr.ph, !llvm.loop !13

20:                                               ; preds = %._crit_edge
  %21 = tail call i32 @fflush(ptr noundef nonnull %0)
  %22 = icmp slt i32 %21, 0
  br i1 %22, label %23, label %26

23:                                               ; preds = %20, %._crit_edge
  store i1 true, ptr @output_failed, align 1
  %24 = tail call ptr @__errno_location() #23
  %25 = load i32, ptr %24, align 4
  store i32 %25, ptr @output_errno, align 4
  br label %26

26:                                               ; preds = %23, %20
  tail call void @free(ptr noundef %3) #19
  ret void
}